target datalayout = "e-m:e-p270:32:32-p271:32:32-p272:64:64-i64:64-i128:128-f80:128-n8:16:32:64-S128"
target triple = "x86_64-pc-linux-gnu"

%struct.x509_purpose_st = type { i32, i32, i32, ptr, ptr, ptr, ptr }

@.str = private unnamed_addr constant [127 x i8] c"generated/home/dtcxzyw/WorkSpace/Projects/compilers/llvm-opt-benchmark/bench/libquic/libquic/boringssl/crypto/x509v3/v3_purp.c\00", align 1
@xptable = internal global ptr null, align 8

; Function Attrs: nounwind uwtable
define hidden i32 @X509_PURPOSE_get_by_id(i32 noundef %0) #0 {
  %2 = alloca i32, align 4
  %3 = alloca i32, align 4
  %4 = alloca %struct.x509_purpose_st, align 8
  %5 = alloca i64, align 8
  %6 = alloca i32, align 4
  store i32 %0, ptr %3, align 4, !tbaa !11
  call void @llvm.lifetime.start.p0(i64 48, ptr %4) #7
  call void @llvm.lifetime.start.p0(i64 8, ptr %5) #7
  %7 = load i32, ptr %3, align 4, !tbaa !11
  %8 = icmp sge i32 %7, 1
  br i1 %8, label %9, label %15

9:                                                ; preds = %1
  %10 = load i32, ptr %3, align 4, !tbaa !11
  %11 = icmp sle i32 %10, 9
  br i1 %11, label %12, label %15

12:                                               ; preds = %9
  %13 = load i32, ptr %3, align 4, !tbaa !11
  %14 = sub nsw i32 %13, 1
  store i32 %14, ptr %2, align 4
  store i32 1, ptr %6, align 4
  br label %30

15:                                               ; preds = %9, %1
  %16 = load i32, ptr %3, align 4, !tbaa !11
  %17 = getelementptr inbounds nuw %struct.x509_purpose_st, ptr %4, i32 0, i32 0
  store i32 %16, ptr %17, align 8, !tbaa !73
  %18 = load ptr, ptr @xptable, align 8, !tbaa !74
  %19 = icmp ne ptr %18, null
  br i1 %19, label %21, label %20

20:                                               ; preds = %15
  store i32 -1, ptr %2, align 4
  store i32 1, ptr %6, align 4
  br label %30

21:                                               ; preds = %15
  %22 = load ptr, ptr @xptable, align 8, !tbaa !74
  %23 = call i32 @sk_find(ptr noundef %22, ptr noundef %5, ptr noundef %4)
  %24 = icmp ne i32 %23, 0
  br i1 %24, label %26, label %25

25:                                               ; preds = %21
  store i32 -1, ptr %2, align 4
  store i32 1, ptr %6, align 4
  br label %30

26:                                               ; preds = %21
  %27 = load i64, ptr %5, align 8, !tbaa !62
  %28 = add i64 %27, 9
  %29 = trunc i64 %28 to i32
  store i32 %29, ptr %2, align 4
  store i32 1, ptr %6, align 4
  br label %30

30:                                               ; preds = %26, %25, %20, %12
  call void @llvm.lifetime.end.p0(i64 8, ptr %5) #7
  call void @llvm.lifetime.end.p0(i64 48, ptr %4) #7
  %31 = load i32, ptr %2, align 4
  ret i32 %31
}

; Function Attrs: nounwind uwtable
define hidden i32 @X509_PURPOSE_set(ptr noundef %0, i32 noundef %1) #0 {
  %3 = alloca i32, align 4
  %4 = alloca ptr, align 8
  %5 = alloca i32, align 4
  store ptr %0, ptr %4, align 8, !tbaa !76
  store i32 %1, ptr %5, align 4, !tbaa !11
  %6 = load i32, ptr %5, align 4, !tbaa !11
  %7 = call i32 @X509_PURPOSE_get_by_id(i32 noundef %6)
  %8 = icmp eq i32 %7, -1
  br i1 %8, label %9, label %10

9:                                                ; preds = %2
  call void @ERR_put_error(i32 noundef 20, i32 noundef 0, i32 noundef 133, ptr noundef @.str, i32 noundef 164)
  store i32 0, ptr %3, align 4
  br label %13

10:                                               ; preds = %2
  %11 = load i32, ptr %5, align 4, !tbaa !11
  %12 = load ptr, ptr %4, align 8, !tbaa !76
  store i32 %11, ptr %12, align 4, !tbaa !11
  store i32 1, ptr %3, align 4
  br label %13

13:                                               ; preds = %10, %9
  %14 = load i32, ptr %3, align 4
  ret i32 %14
}