; Function Attrs: nounwind uwtable
define hidden range(i32 0, 2) i32 @X509_PURPOSE_set(ptr noundef writeonly captures(none) %0, i32 noundef %1) local_unnamed_addr #0 {
  %3 = alloca %struct.x509_purpose_st, align 8
  %4 = alloca i64, align 8
  call void @llvm.lifetime.start.p0(i64 48, ptr nonnull %3) #10
  call void @llvm.lifetime.start.p0(i64 8, ptr nonnull %4) #10
  %5 = add i32 %1, -1
  %or.cond.i = icmp ult i32 %5, 9
  br i1 %or.cond.i, label %X509_PURPOSE_get_by_id.exit.thread4, label %6

X509_PURPOSE_get_by_id.exit.thread4:              ; preds = %2
  call void @llvm.lifetime.end.p0(i64 8, ptr nonnull %4) #10
  call void @llvm.lifetime.end.p0(i64 48, ptr nonnull %3) #10
  br label %14

6:                                                ; preds = %2
  store i32 %1, ptr %3, align 8, !tbaa !25
  %7 = load ptr, ptr @xptable, align 8, !tbaa !27
  %.not.i = icmp eq ptr %7, null
  br i1 %.not.i, label %X509_PURPOSE_get_by_id.exit.thread, label %8

8:                                                ; preds = %6
  %9 = call i32 @sk_find(ptr noundef nonnull %7, ptr noundef nonnull %4, ptr noundef nonnull %3) #10
  %.not8.i = icmp eq i32 %9, 0
  br i1 %.not8.i, label %X509_PURPOSE_get_by_id.exit.thread, label %X509_PURPOSE_get_by_id.exit

X509_PURPOSE_get_by_id.exit.thread:               ; preds = %6, %8
  call void @llvm.lifetime.end.p0(i64 8, ptr nonnull %4) #10
  call void @llvm.lifetime.end.p0(i64 48, ptr nonnull %3) #10
  br label %13

X509_PURPOSE_get_by_id.exit:                      ; preds = %8
  %10 = load i64, ptr %4, align 8, !tbaa !29
  call void @llvm.lifetime.end.p0(i64 8, ptr nonnull %4) #10
  call void @llvm.lifetime.end.p0(i64 48, ptr nonnull %3) #10
  %11 = and i64 %10, 4294967295
  %12 = icmp eq i64 %11, 4294967286
  br i1 %12, label %13, label %14

13:                                               ; preds = %X509_PURPOSE_get_by_id.exit.thread, %X509_PURPOSE_get_by_id.exit
  call void @ERR_put_error(i32 noundef 20, i32 noundef 0, i32 noundef 133, ptr noundef nonnull @.str, i32 noundef 164) #10
  br label %15

14:                                               ; preds = %X509_PURPOSE_get_by_id.exit.thread4, %X509_PURPOSE_get_by_id.exit
  store i32 %1, ptr %0, align 4, !tbaa !74
  br label %15

15:                                               ; preds = %14, %13
  %.0 = phi i32 [ 0, %13 ], [ 1, %14 ]
  ret i32 %.0
}